target datalayout = "e-m:e-p270:32:32-p271:32:32-p272:64:64-i64:64-i128:128-f80:128-n8:16:32:64-S128"
target triple = "x86_64-pc-linux-gnu"

@.str.18 = private unnamed_addr constant [30 x i8] c"../openssl/test/threadstest.c\00", align 1
@default_provider = internal global [2 x ptr] [ptr @.str.54, ptr null], align 16
@.str.76 = private unnamed_addr constant [2 x i8] c"1\00", align 1
@.str.160 = private unnamed_addr constant [2 x i8] c"r\00", align 1
@multi_bio1 = internal global ptr null, align 8
@multi_bio2 = internal global ptr null, align 8

; Function Attrs: nounwind uwtable
define internal i32 @test_bio_dgram_pair() #0 {
  %1 = alloca i32, align 4
  %2 = alloca ptr, align 8
  %3 = alloca ptr, align 8
  call void @llvm.lifetime.start.p0(i64 4, ptr %1) #10
  call void @llvm.lifetime.start.p0(i64 8, ptr %2) #10
  store ptr null, ptr %2, align 8, !tbaa !26
  call void @llvm.lifetime.start.p0(i64 8, ptr %3) #10
  store ptr null, ptr %3, align 8, !tbaa !26
  %4 = call i32 @BIO_new_bio_dgram_pair(ptr noundef %2, i64 noundef 0, ptr noundef %3, i64 noundef 0)
  store i32 %4, ptr %1, align 4, !tbaa !4
  %5 = load i32, ptr %1, align 4, !tbaa !4
  %6 = call i32 @test_int_eq(ptr noundef @.str.18, i32 noundef 1205, ptr noundef @.str.160, ptr noundef @.str.76, i32 noundef %5, i32 noundef 1)
  %7 = icmp ne i32 %6, 0
  br i1 %7, label %9, label %8

8:                                                ; preds = %0
  br label %13

9:                                                ; preds = %0
  %10 = load ptr, ptr %2, align 8, !tbaa !26
  store ptr %10, ptr @multi_bio1, align 8, !tbaa !26
  %11 = load ptr, ptr %3, align 8, !tbaa !26
  store ptr %11, ptr @multi_bio2, align 8, !tbaa !26
  %12 = call i32 @thread_run_test(ptr noundef @test_bio_dgram_pair_worker, i64 noundef 10, ptr noundef @test_bio_dgram_pair_worker, i32 noundef 1, ptr noundef @default_provider)
  store i32 %12, ptr %1, align 4, !tbaa !4
  br label %13

13:                                               ; preds = %9, %8
  %14 = load ptr, ptr %2, align 8, !tbaa !26
  %15 = call i32 @BIO_free(ptr noundef %14)
  %16 = load ptr, ptr %3, align 8, !tbaa !26
  %17 = call i32 @BIO_free(ptr noundef %16)
  %18 = load i32, ptr %1, align 4, !tbaa !4
  call void @llvm.lifetime.end.p0(i64 8, ptr %3) #10
  call void @llvm.lifetime.end.p0(i64 8, ptr %2) #10
  call void @llvm.lifetime.end.p0(i64 4, ptr %1) #10
  ret i32 %18
}