; Function Attrs: nounwind uwtable
define internal i32 @test_bio_dgram_pair() #1 {
  %1 = alloca ptr, align 8
  %2 = alloca ptr, align 8
  call void @llvm.lifetime.start.p0(i64 8, ptr nonnull %1) #11
  store ptr null, ptr %1, align 8, !tbaa !27
  call void @llvm.lifetime.start.p0(i64 8, ptr nonnull %2) #11
  store ptr null, ptr %2, align 8, !tbaa !27
  %3 = call i32 @BIO_new_bio_dgram_pair(ptr noundef nonnull %1, i64 noundef 0, ptr noundef nonnull %2, i64 noundef 0) #11
  %4 = call i32 @test_int_eq(ptr noundef nonnull @.str.18, i32 noundef 1205, ptr noundef nonnull @.str.160, ptr noundef nonnull @.str.76, i32 noundef %3, i32 noundef 1) #11
  %.not = icmp eq i32 %4, 0
  br i1 %.not, label %9, label %5

5:                                                ; preds = %0
  %6 = load ptr, ptr %1, align 8, !tbaa !27
  store ptr %6, ptr @multi_bio1, align 8, !tbaa !27
  %7 = load ptr, ptr %2, align 8, !tbaa !27
  store ptr %7, ptr @multi_bio2, align 8, !tbaa !27
  %8 = call fastcc i32 @thread_run_test(ptr noundef nonnull @test_bio_dgram_pair_worker, i64 noundef 10, ptr noundef nonnull @test_bio_dgram_pair_worker, i32 noundef 1, ptr noundef nonnull @default_provider)
  br label %9

9:                                                ; preds = %0, %5
  %.0 = phi i32 [ %8, %5 ], [ %3, %0 ]
  %10 = load ptr, ptr %1, align 8, !tbaa !27
  %11 = call i32 @BIO_free(ptr noundef %10) #11
  %12 = load ptr, ptr %2, align 8, !tbaa !27
  %13 = call i32 @BIO_free(ptr noundef %12) #11
  call void @llvm.lifetime.end.p0(i64 8, ptr nonnull %2) #11
  call void @llvm.lifetime.end.p0(i64 8, ptr nonnull %1) #11
  ret i32 %.0
}